target datalayout = "e-m:e-p270:32:32-p271:32:32-p272:64:64-i64:64-i128:128-f80:128-n8:16:32:64-S128"
target triple = "x86_64-pc-linux-gnu"

%struct.TuplesortPublic = type { ptr, ptr, ptr, ptr, ptr, ptr, ptr, ptr, ptr, i8, i32, ptr, ptr, i32, i8, ptr }
%struct.SortSupportData = type { ptr, i32, i8, i8, i16, ptr, ptr, i8, ptr, ptr, ptr }
%struct.SortTuple = type { ptr, i64, i8, i32 }

; Function Attrs: inlinehint nounwind uwtable
define internal i32 @ApplySortComparator(i64 noundef %0, i1 noundef zeroext %1, i64 noundef %2, i1 noundef zeroext %3, ptr noundef %4) #3 {
  %6 = alloca i64, align 8
  %7 = alloca i8, align 1
  %8 = alloca i64, align 8
  %9 = alloca i8, align 1
  %10 = alloca ptr, align 8
  %11 = alloca i32, align 4
  store i64 %0, ptr %6, align 8
  %12 = zext i1 %1 to i8
  store i8 %12, ptr %7, align 1
  store i64 %2, ptr %8, align 8
  %13 = zext i1 %3 to i8
  store i8 %13, ptr %9, align 1
  store ptr %4, ptr %10, align 8
  call void @llvm.lifetime.start.p0(i64 4, ptr %11) #6
  %14 = load i8, ptr %7, align 1, !range !4, !noundef !5
  %15 = trunc i8 %14 to i1
  br i1 %15, label %16, label %29

16:                                               ; preds = %5
  %17 = load i8, ptr %9, align 1, !range !4, !noundef !5
  %18 = trunc i8 %17 to i1
  br i1 %18, label %19, label %20

19:                                               ; preds = %16
  store i32 0, ptr %11, align 4
  br label %28

20:                                               ; preds = %16
  %21 = load ptr, ptr %10, align 8
  %22 = getelementptr inbounds nuw %struct.SortSupportData, ptr %21, i32 0, i32 3
  %23 = load i8, ptr %22, align 1, !range !4, !noundef !5
  %24 = trunc i8 %23 to i1
  br i1 %24, label %25, label %26

25:                                               ; preds = %20
  store i32 -1, ptr %11, align 4
  br label %27

26:                                               ; preds = %20
  store i32 1, ptr %11, align 4
  br label %27

27:                                               ; preds = %26, %25
  br label %28

28:                                               ; preds = %27, %19
  br label %63

29:                                               ; preds = %5
  %30 = load i8, ptr %9, align 1, !range !4, !noundef !5
  %31 = trunc i8 %30 to i1
  br i1 %31, label %32, label %40

32:                                               ; preds = %29
  %33 = load ptr, ptr %10, align 8
  %34 = getelementptr inbounds nuw %struct.SortSupportData, ptr %33, i32 0, i32 3
  %35 = load i8, ptr %34, align 1, !range !4, !noundef !5
  %36 = trunc i8 %35 to i1
  br i1 %36, label %37, label %38

37:                                               ; preds = %32
  store i32 1, ptr %11, align 4
  br label %39

38:                                               ; preds = %32
  store i32 -1, ptr %11, align 4
  br label %39

39:                                               ; preds = %38, %37
  br label %62

40:                                               ; preds = %29
  %41 = load ptr, ptr %10, align 8
  %42 = getelementptr inbounds nuw %struct.SortSupportData, ptr %41, i32 0, i32 6
  %43 = load ptr, ptr %42, align 8
  %44 = load i64, ptr %6, align 8
  %45 = load i64, ptr %8, align 8
  %46 = load ptr, ptr %10, align 8
  %47 = call i32 %43(i64 noundef %44, i64 noundef %45, ptr noundef %46)
  store i32 %47, ptr %11, align 4
  %48 = load ptr, ptr %10, align 8
  %49 = getelementptr inbounds nuw %struct.SortSupportData, ptr %48, i32 0, i32 2
  %50 = load i8, ptr %49, align 4, !range !4, !noundef !5
  %51 = trunc i8 %50 to i1
  br i1 %51, label %52, label %61

52:                                               ; preds = %40
  %53 = load i32, ptr %11, align 4
  %54 = icmp slt i32 %53, 0
  br i1 %54, label %55, label %56

55:                                               ; preds = %52
  br label %59

56:                                               ; preds = %52
  %57 = load i32, ptr %11, align 4
  %58 = sub i32 0, %57
  br label %59

59:                                               ; preds = %56, %55
  %60 = phi i32 [ 1, %55 ], [ %58, %56 ]
  store i32 %60, ptr %11, align 4
  br label %61

61:                                               ; preds = %59, %40
  br label %62

62:                                               ; preds = %61, %39
  br label %63

63:                                               ; preds = %62, %28
  %64 = load i32, ptr %11, align 4
  call void @llvm.lifetime.end.p0(i64 4, ptr %11) #6
  ret i32 %64
}

; Function Attrs: nounwind uwtable
define internal i32 @comparetup_index_btree(ptr noundef %0, ptr noundef %1, ptr noundef %2) #0 {
  %4 = alloca i32, align 4
  %5 = alloca ptr, align 8
  %6 = alloca ptr, align 8
  %7 = alloca ptr, align 8
  %8 = alloca ptr, align 8
  %9 = alloca ptr, align 8
  %10 = alloca i32, align 4
  %11 = alloca i32, align 4
  store ptr %0, ptr %5, align 8
  store ptr %1, ptr %6, align 8
  store ptr %2, ptr %7, align 8
  call void @llvm.lifetime.start.p0(i64 8, ptr %8) #6
  %12 = load ptr, ptr %7, align 8
  store ptr %12, ptr %8, align 8
  call void @llvm.lifetime.start.p0(i64 8, ptr %9) #6
  %13 = load ptr, ptr %8, align 8
  %14 = getelementptr inbounds nuw %struct.TuplesortPublic, ptr %13, i32 0, i32 11
  %15 = load ptr, ptr %14, align 8
  store ptr %15, ptr %9, align 8
  call void @llvm.lifetime.start.p0(i64 4, ptr %10) #6
  %16 = load ptr, ptr %5, align 8
  %17 = getelementptr inbounds nuw %struct.SortTuple, ptr %16, i32 0, i32 1
  %18 = load i64, ptr %17, align 8
  %19 = load ptr, ptr %5, align 8
  %20 = getelementptr inbounds nuw %struct.SortTuple, ptr %19, i32 0, i32 2
  %21 = load i8, ptr %20, align 8, !range !4, !noundef !5
  %22 = trunc i8 %21 to i1
  %23 = load ptr, ptr %6, align 8
  %24 = getelementptr inbounds nuw %struct.SortTuple, ptr %23, i32 0, i32 1
  %25 = load i64, ptr %24, align 8
  %26 = load ptr, ptr %6, align 8
  %27 = getelementptr inbounds nuw %struct.SortTuple, ptr %26, i32 0, i32 2
  %28 = load i8, ptr %27, align 8, !range !4, !noundef !5
  %29 = trunc i8 %28 to i1
  %30 = load ptr, ptr %9, align 8
  %31 = call i32 @ApplySortComparator(i64 noundef %18, i1 noundef zeroext %22, i64 noundef %25, i1 noundef zeroext %29, ptr noundef %30)
  store i32 %31, ptr %10, align 4
  %32 = load i32, ptr %10, align 4
  %33 = icmp ne i32 %32, 0
  br i1 %33, label %34, label %36

34:                                               ; preds = %3
  %35 = load i32, ptr %10, align 4
  store i32 %35, ptr %4, align 4
  store i32 1, ptr %11, align 4
  br label %41

36:                                               ; preds = %3
  %37 = load ptr, ptr %5, align 8
  %38 = load ptr, ptr %6, align 8
  %39 = load ptr, ptr %7, align 8
  %40 = call i32 @comparetup_index_btree_tiebreak(ptr noundef %37, ptr noundef %38, ptr noundef %39)
  store i32 %40, ptr %4, align 4
  store i32 1, ptr %11, align 4
  br label %41

41:                                               ; preds = %36, %34
  call void @llvm.lifetime.end.p0(i64 4, ptr %10) #6
  call void @llvm.lifetime.end.p0(i64 8, ptr %9) #6
  call void @llvm.lifetime.end.p0(i64 8, ptr %8) #6
  %42 = load i32, ptr %4, align 4
  ret i32 %42
}