; Function Attrs: nounwind uwtable
define internal i32 @comparetup_index_btree(ptr noundef readonly captures(none) %0, ptr noundef readonly captures(none) %1, ptr noundef readonly captures(none) %2) #0 {
  %4 = getelementptr inbounds nuw i8, ptr %2, i64 80
  %5 = load ptr, ptr %4, align 8
  %6 = getelementptr inbounds nuw i8, ptr %0, i64 8
  %7 = load i64, ptr %6, align 8
  %8 = getelementptr inbounds nuw i8, ptr %0, i64 16
  %9 = load i8, ptr %8, align 8, !range !4, !noundef !5
  %10 = trunc nuw i8 %9 to i1
  %11 = getelementptr inbounds nuw i8, ptr %1, i64 8
  %12 = load i64, ptr %11, align 8
  %13 = getelementptr inbounds nuw i8, ptr %1, i64 16
  %14 = load i8, ptr %13, align 8, !range !4, !noundef !5
  %15 = trunc nuw i8 %14 to i1
  br i1 %10, label %16, label %21

16:                                               ; preds = %3
  br i1 %15, label %ApplySortComparator.exit.thread15, label %17

17:                                               ; preds = %16
  %18 = getelementptr inbounds nuw i8, ptr %5, i64 13
  %19 = load i8, ptr %18, align 1, !range !4, !noundef !5
  %20 = trunc nuw i8 %19 to i1
  %..i = select i1 %20, i32 -1, i32 1
  br label %ApplySortComparator.exit.thread

21:                                               ; preds = %3
  br i1 %15, label %22, label %26

22:                                               ; preds = %21
  %23 = getelementptr inbounds nuw i8, ptr %5, i64 13
  %24 = load i8, ptr %23, align 1, !range !4, !noundef !5
  %25 = trunc nuw i8 %24 to i1
  %.12.i = select i1 %25, i32 1, i32 -1
  br label %ApplySortComparator.exit.thread

26:                                               ; preds = %21
  %27 = getelementptr inbounds nuw i8, ptr %5, i64 24
  %28 = load ptr, ptr %27, align 8
  %29 = tail call i32 %28(i64 noundef %7, i64 noundef %12, ptr noundef %5) #12
  %30 = getelementptr inbounds nuw i8, ptr %5, i64 12
  %31 = load i8, ptr %30, align 4, !range !4, !noundef !5
  %32 = trunc nuw i8 %31 to i1
  br i1 %32, label %33, label %ApplySortComparator.exit

33:                                               ; preds = %26
  %34 = icmp slt i32 %29, 0
  %35 = sub nsw i32 0, %29
  br i1 %34, label %ApplySortComparator.exit.thread, label %ApplySortComparator.exit

ApplySortComparator.exit:                         ; preds = %33, %26
  %.0.i = phi i32 [ %35, %33 ], [ %29, %26 ]
  %.not = icmp eq i32 %.0.i, 0
  br i1 %.not, label %ApplySortComparator.exit.thread15, label %ApplySortComparator.exit.thread

ApplySortComparator.exit.thread15:                ; preds = %16, %ApplySortComparator.exit
  %36 = tail call i32 @comparetup_index_btree_tiebreak(ptr noundef nonnull %0, ptr noundef nonnull %1, ptr noundef nonnull %2)
  br label %ApplySortComparator.exit.thread

ApplySortComparator.exit.thread:                  ; preds = %33, %22, %17, %ApplySortComparator.exit, %ApplySortComparator.exit.thread15
  %.0 = phi i32 [ %36, %ApplySortComparator.exit.thread15 ], [ %.0.i, %ApplySortComparator.exit ], [ %.12.i, %22 ], [ %..i, %17 ], [ 1, %33 ]
  ret i32 %.0
}